target datalayout = "e-m:e-p270:32:32-p271:32:32-p272:64:64-i64:64-i128:128-f80:128-n8:16:32:64-S128"
target triple = "x86_64-pc-linux-gnu"

%struct.AVFilterContext = type { ptr, ptr, ptr, ptr, ptr, i32, ptr, ptr, i32, ptr, ptr, i32, i32, ptr, ptr, ptr, ptr, i32, ptr, i32, i32 }
%struct.ThresholdContext = type { ptr, i32, i32, i32, i32, [4 x i32], [4 x i32], ptr, [4 x ptr], %struct.FFFrameSync }
%struct.FFFrameSync = type { ptr, ptr, i32, %struct.AVRational, i64, ptr, ptr, i32, i32, i8, i8, ptr, i32, i32, i32, i32 }
%struct.AVRational = type { i32, i32 }
%struct.AVChannelLayout = type { i32, i32, %union.anon.1, ptr }
%union.anon.1 = type { i64 }
%struct.ThreadData = type { ptr, ptr, ptr, ptr, ptr }
%struct.AVFrame = type { [8 x ptr], [8 x i32], ptr, i32, i32, i32, i32, i32, %struct.AVRational, i64, i64, %struct.AVRational, i32, ptr, i32, i32, [8 x ptr], ptr, i32, ptr, i32, i32, i32, i32, i32, i32, i32, i64, ptr, i32, ptr, ptr, i64, i64, i64, i64, ptr, %struct.AVChannelLayout, i64 }

; Function Attrs: nounwind uwtable
define internal i32 @filter_slice(ptr noundef %0, ptr noundef %1, i32 noundef %2, i32 noundef %3) #2 {
  %5 = alloca ptr, align 8
  %6 = alloca ptr, align 8
  %7 = alloca i32, align 4
  %8 = alloca i32, align 4
  %9 = alloca ptr, align 8
  %10 = alloca ptr, align 8
  %11 = alloca ptr, align 8
  %12 = alloca ptr, align 8
  %13 = alloca ptr, align 8
  %14 = alloca ptr, align 8
  %15 = alloca ptr, align 8
  %16 = alloca i32, align 4
  %17 = alloca i32, align 4
  %18 = alloca i32, align 4
  %19 = alloca i32, align 4
  %20 = alloca i32, align 4
  store ptr %0, ptr %5, align 8, !tbaa !4
  store ptr %1, ptr %6, align 8, !tbaa !101
  store i32 %2, ptr %7, align 4, !tbaa !44
  store i32 %3, ptr %8, align 4, !tbaa !44
  call void @llvm.lifetime.start.p0(i64 8, ptr %9) #9
  %21 = load ptr, ptr %5, align 8, !tbaa !4
  %22 = getelementptr inbounds nuw %struct.AVFilterContext, ptr %21, i32 0, i32 9
  %23 = load ptr, ptr %22, align 8, !tbaa !9
  store ptr %23, ptr %9, align 8, !tbaa !22
  call void @llvm.lifetime.start.p0(i64 8, ptr %10) #9
  %24 = load ptr, ptr %6, align 8, !tbaa !101
  store ptr %24, ptr %10, align 8, !tbaa !102
  call void @llvm.lifetime.start.p0(i64 8, ptr %11) #9
  %25 = load ptr, ptr %10, align 8, !tbaa !102
  %26 = getelementptr inbounds nuw %struct.ThreadData, ptr %25, i32 0, i32 2
  %27 = load ptr, ptr %26, align 8, !tbaa !93
  store ptr %27, ptr %11, align 8, !tbaa !88
  call void @llvm.lifetime.start.p0(i64 8, ptr %12) #9
  %28 = load ptr, ptr %10, align 8, !tbaa !102
  %29 = getelementptr inbounds nuw %struct.ThreadData, ptr %28, i32 0, i32 3
  %30 = load ptr, ptr %29, align 8, !tbaa !94
  store ptr %30, ptr %12, align 8, !tbaa !88
  call void @llvm.lifetime.start.p0(i64 8, ptr %13) #9
  %31 = load ptr, ptr %10, align 8, !tbaa !102
  %32 = getelementptr inbounds nuw %struct.ThreadData, ptr %31, i32 0, i32 1
  %33 = load ptr, ptr %32, align 8, !tbaa !92
  store ptr %33, ptr %13, align 8, !tbaa !88
  call void @llvm.lifetime.start.p0(i64 8, ptr %14) #9
  %34 = load ptr, ptr %10, align 8, !tbaa !102
  %35 = getelementptr inbounds nuw %struct.ThreadData, ptr %34, i32 0, i32 0
  %36 = load ptr, ptr %35, align 8, !tbaa !91
  store ptr %36, ptr %14, align 8, !tbaa !88
  call void @llvm.lifetime.start.p0(i64 8, ptr %15) #9
  %37 = load ptr, ptr %10, align 8, !tbaa !102
  %38 = getelementptr inbounds nuw %struct.ThreadData, ptr %37, i32 0, i32 4
  %39 = load ptr, ptr %38, align 8, !tbaa !89
  store ptr %39, ptr %15, align 8, !tbaa !88
  call void @llvm.lifetime.start.p0(i64 4, ptr %16) #9
  store i32 0, ptr %16, align 4, !tbaa !44
  br label %40

40:                                               ; preds = %261, %4
  %41 = load i32, ptr %16, align 4, !tbaa !44
  %42 = load ptr, ptr %9, align 8, !tbaa !22
  %43 = getelementptr inbounds nuw %struct.ThresholdContext, ptr %42, i32 0, i32 4
  %44 = load i32, ptr %43, align 4, !tbaa !37
  %45 = icmp slt i32 %41, %44
  br i1 %45, label %47, label %46

46:                                               ; preds = %40
  store i32 2, ptr %17, align 4
  call void @llvm.lifetime.end.p0(i64 4, ptr %16) #9
  br label %264

47:                                               ; preds = %40
  call void @llvm.lifetime.start.p0(i64 4, ptr %18) #9
  %48 = load ptr, ptr %9, align 8, !tbaa !22
  %49 = getelementptr inbounds nuw %struct.ThresholdContext, ptr %48, i32 0, i32 6
  %50 = load i32, ptr %16, align 4, !tbaa !44
  %51 = sext i32 %50 to i64
  %52 = getelementptr inbounds [4 x i32], ptr %49, i64 0, i64 %51
  %53 = load i32, ptr %52, align 4, !tbaa !44
  store i32 %53, ptr %18, align 4, !tbaa !44
  call void @llvm.lifetime.start.p0(i64 4, ptr %19) #9
  %54 = load i32, ptr %18, align 4, !tbaa !44
  %55 = load i32, ptr %7, align 4, !tbaa !44
  %56 = mul nsw i32 %54, %55
  %57 = load i32, ptr %8, align 4, !tbaa !44
  %58 = sdiv i32 %56, %57
  store i32 %58, ptr %19, align 4, !tbaa !44
  call void @llvm.lifetime.start.p0(i64 4, ptr %20) #9
  %59 = load i32, ptr %18, align 4, !tbaa !44
  %60 = load i32, ptr %7, align 4, !tbaa !44
  %61 = add nsw i32 %60, 1
  %62 = mul nsw i32 %59, %61
  %63 = load i32, ptr %8, align 4, !tbaa !44
  %64 = sdiv i32 %62, %63
  store i32 %64, ptr %20, align 4, !tbaa !44
  %65 = load ptr, ptr %9, align 8, !tbaa !22
  %66 = getelementptr inbounds nuw %struct.ThresholdContext, ptr %65, i32 0, i32 2
  %67 = load i32, ptr %66, align 4, !tbaa !104
  %68 = load i32, ptr %16, align 4, !tbaa !44
  %69 = shl i32 1, %68
  %70 = and i32 %67, %69
  %71 = icmp ne i32 %70, 0
  br i1 %71, label %130, label %72

72:                                               ; preds = %47
  %73 = load ptr, ptr %15, align 8, !tbaa !88
  %74 = getelementptr inbounds nuw %struct.AVFrame, ptr %73, i32 0, i32 0
  %75 = load i32, ptr %16, align 4, !tbaa !44
  %76 = sext i32 %75 to i64
  %77 = getelementptr inbounds [8 x ptr], ptr %74, i64 0, i64 %76
  %78 = load ptr, ptr %77, align 8, !tbaa !53
  %79 = load i32, ptr %19, align 4, !tbaa !44
  %80 = load ptr, ptr %15, align 8, !tbaa !88
  %81 = getelementptr inbounds nuw %struct.AVFrame, ptr %80, i32 0, i32 1
  %82 = load i32, ptr %16, align 4, !tbaa !44
  %83 = sext i32 %82 to i64
  %84 = getelementptr inbounds [8 x i32], ptr %81, i64 0, i64 %83
  %85 = load i32, ptr %84, align 4, !tbaa !44
  %86 = mul nsw i32 %79, %85
  %87 = sext i32 %86 to i64
  %88 = getelementptr inbounds i8, ptr %78, i64 %87
  %89 = load ptr, ptr %15, align 8, !tbaa !88
  %90 = getelementptr inbounds nuw %struct.AVFrame, ptr %89, i32 0, i32 1
  %91 = load i32, ptr %16, align 4, !tbaa !44
  %92 = sext i32 %91 to i64
  %93 = getelementptr inbounds [8 x i32], ptr %90, i64 0, i64 %92
  %94 = load i32, ptr %93, align 4, !tbaa !44
  %95 = load ptr, ptr %14, align 8, !tbaa !88
  %96 = getelementptr inbounds nuw %struct.AVFrame, ptr %95, i32 0, i32 0
  %97 = load i32, ptr %16, align 4, !tbaa !44
  %98 = sext i32 %97 to i64
  %99 = getelementptr inbounds [8 x ptr], ptr %96, i64 0, i64 %98
  %100 = load ptr, ptr %99, align 8, !tbaa !53
  %101 = load i32, ptr %19, align 4, !tbaa !44
  %102 = load ptr, ptr %14, align 8, !tbaa !88
  %103 = getelementptr inbounds nuw %struct.AVFrame, ptr %102, i32 0, i32 1
  %104 = load i32, ptr %16, align 4, !tbaa !44
  %105 = sext i32 %104 to i64
  %106 = getelementptr inbounds [8 x i32], ptr %103, i64 0, i64 %105
  %107 = load i32, ptr %106, align 4, !tbaa !44
  %108 = mul nsw i32 %101, %107
  %109 = sext i32 %108 to i64
  %110 = getelementptr inbounds i8, ptr %100, i64 %109
  %111 = load ptr, ptr %14, align 8, !tbaa !88
  %112 = getelementptr inbounds nuw %struct.AVFrame, ptr %111, i32 0, i32 1
  %113 = load i32, ptr %16, align 4, !tbaa !44
  %114 = sext i32 %113 to i64
  %115 = getelementptr inbounds [8 x i32], ptr %112, i64 0, i64 %114
  %116 = load i32, ptr %115, align 4, !tbaa !44
  %117 = load ptr, ptr %9, align 8, !tbaa !22
  %118 = getelementptr inbounds nuw %struct.ThresholdContext, ptr %117, i32 0, i32 5
  %119 = load i32, ptr %16, align 4, !tbaa !44
  %120 = sext i32 %119 to i64
  %121 = getelementptr inbounds [4 x i32], ptr %118, i64 0, i64 %120
  %122 = load i32, ptr %121, align 4, !tbaa !44
  %123 = load ptr, ptr %9, align 8, !tbaa !22
  %124 = getelementptr inbounds nuw %struct.ThresholdContext, ptr %123, i32 0, i32 3
  %125 = load i32, ptr %124, align 8, !tbaa !52
  %126 = mul nsw i32 %122, %125
  %127 = load i32, ptr %20, align 4, !tbaa !44
  %128 = load i32, ptr %19, align 4, !tbaa !44
  %129 = sub nsw i32 %127, %128
  call void @av_image_copy_plane(ptr noundef %88, i32 noundef %94, ptr noundef %110, i32 noundef %116, i32 noundef %126, i32 noundef %129)
  store i32 4, ptr %17, align 4
  br label %258

130:                                              ; preds = %47
  %131 = load ptr, ptr %9, align 8, !tbaa !22
  %132 = getelementptr inbounds nuw %struct.ThresholdContext, ptr %131, i32 0, i32 7
  %133 = load ptr, ptr %132, align 8, !tbaa !51
  %134 = load ptr, ptr %14, align 8, !tbaa !88
  %135 = getelementptr inbounds nuw %struct.AVFrame, ptr %134, i32 0, i32 0
  %136 = load i32, ptr %16, align 4, !tbaa !44
  %137 = sext i32 %136 to i64
  %138 = getelementptr inbounds [8 x ptr], ptr %135, i64 0, i64 %137
  %139 = load ptr, ptr %138, align 8, !tbaa !53
  %140 = load i32, ptr %19, align 4, !tbaa !44
  %141 = load ptr, ptr %14, align 8, !tbaa !88
  %142 = getelementptr inbounds nuw %struct.AVFrame, ptr %141, i32 0, i32 1
  %143 = load i32, ptr %16, align 4, !tbaa !44
  %144 = sext i32 %143 to i64
  %145 = getelementptr inbounds [8 x i32], ptr %142, i64 0, i64 %144
  %146 = load i32, ptr %145, align 4, !tbaa !44
  %147 = mul nsw i32 %140, %146
  %148 = sext i32 %147 to i64
  %149 = getelementptr inbounds i8, ptr %139, i64 %148
  %150 = load ptr, ptr %13, align 8, !tbaa !88
  %151 = getelementptr inbounds nuw %struct.AVFrame, ptr %150, i32 0, i32 0
  %152 = load i32, ptr %16, align 4, !tbaa !44
  %153 = sext i32 %152 to i64
  %154 = getelementptr inbounds [8 x ptr], ptr %151, i64 0, i64 %153
  %155 = load ptr, ptr %154, align 8, !tbaa !53
  %156 = load i32, ptr %19, align 4, !tbaa !44
  %157 = load ptr, ptr %13, align 8, !tbaa !88
  %158 = getelementptr inbounds nuw %struct.AVFrame, ptr %157, i32 0, i32 1
  %159 = load i32, ptr %16, align 4, !tbaa !44
  %160 = sext i32 %159 to i64
  %161 = getelementptr inbounds [8 x i32], ptr %158, i64 0, i64 %160
  %162 = load i32, ptr %161, align 4, !tbaa !44
  %163 = mul nsw i32 %156, %162
  %164 = sext i32 %163 to i64
  %165 = getelementptr inbounds i8, ptr %155, i64 %164
  %166 = load ptr, ptr %11, align 8, !tbaa !88
  %167 = getelementptr inbounds nuw %struct.AVFrame, ptr %166, i32 0, i32 0
  %168 = load i32, ptr %16, align 4, !tbaa !44
  %169 = sext i32 %168 to i64
  %170 = getelementptr inbounds [8 x ptr], ptr %167, i64 0, i64 %169
  %171 = load ptr, ptr %170, align 8, !tbaa !53
  %172 = load i32, ptr %19, align 4, !tbaa !44
  %173 = load ptr, ptr %11, align 8, !tbaa !88
  %174 = getelementptr inbounds nuw %struct.AVFrame, ptr %173, i32 0, i32 1
  %175 = load i32, ptr %16, align 4, !tbaa !44
  %176 = sext i32 %175 to i64
  %177 = getelementptr inbounds [8 x i32], ptr %174, i64 0, i64 %176
  %178 = load i32, ptr %177, align 4, !tbaa !44
  %179 = mul nsw i32 %172, %178
  %180 = sext i32 %179 to i64
  %181 = getelementptr inbounds i8, ptr %171, i64 %180
  %182 = load ptr, ptr %12, align 8, !tbaa !88
  %183 = getelementptr inbounds nuw %struct.AVFrame, ptr %182, i32 0, i32 0
  %184 = load i32, ptr %16, align 4, !tbaa !44
  %185 = sext i32 %184 to i64
  %186 = getelementptr inbounds [8 x ptr], ptr %183, i64 0, i64 %185
  %187 = load ptr, ptr %186, align 8, !tbaa !53
  %188 = load i32, ptr %19, align 4, !tbaa !44
  %189 = load ptr, ptr %12, align 8, !tbaa !88
  %190 = getelementptr inbounds nuw %struct.AVFrame, ptr %189, i32 0, i32 1
  %191 = load i32, ptr %16, align 4, !tbaa !44
  %192 = sext i32 %191 to i64
  %193 = getelementptr inbounds [8 x i32], ptr %190, i64 0, i64 %192
  %194 = load i32, ptr %193, align 4, !tbaa !44
  %195 = mul nsw i32 %188, %194
  %196 = sext i32 %195 to i64
  %197 = getelementptr inbounds i8, ptr %187, i64 %196
  %198 = load ptr, ptr %15, align 8, !tbaa !88
  %199 = getelementptr inbounds nuw %struct.AVFrame, ptr %198, i32 0, i32 0
  %200 = load i32, ptr %16, align 4, !tbaa !44
  %201 = sext i32 %200 to i64
  %202 = getelementptr inbounds [8 x ptr], ptr %199, i64 0, i64 %201
  %203 = load ptr, ptr %202, align 8, !tbaa !53
  %204 = load i32, ptr %19, align 4, !tbaa !44
  %205 = load ptr, ptr %15, align 8, !tbaa !88
  %206 = getelementptr inbounds nuw %struct.AVFrame, ptr %205, i32 0, i32 1
  %207 = load i32, ptr %16, align 4, !tbaa !44
  %208 = sext i32 %207 to i64
  %209 = getelementptr inbounds [8 x i32], ptr %206, i64 0, i64 %208
  %210 = load i32, ptr %209, align 4, !tbaa !44
  %211 = mul nsw i32 %204, %210
  %212 = sext i32 %211 to i64
  %213 = getelementptr inbounds i8, ptr %203, i64 %212
  %214 = load ptr, ptr %14, align 8, !tbaa !88
  %215 = getelementptr inbounds nuw %struct.AVFrame, ptr %214, i32 0, i32 1
  %216 = load i32, ptr %16, align 4, !tbaa !44
  %217 = sext i32 %216 to i64
  %218 = getelementptr inbounds [8 x i32], ptr %215, i64 0, i64 %217
  %219 = load i32, ptr %218, align 4, !tbaa !44
  %220 = sext i32 %219 to i64
  %221 = load ptr, ptr %13, align 8, !tbaa !88
  %222 = getelementptr inbounds nuw %struct.AVFrame, ptr %221, i32 0, i32 1
  %223 = load i32, ptr %16, align 4, !tbaa !44
  %224 = sext i32 %223 to i64
  %225 = getelementptr inbounds [8 x i32], ptr %222, i64 0, i64 %224
  %226 = load i32, ptr %225, align 4, !tbaa !44
  %227 = sext i32 %226 to i64
  %228 = load ptr, ptr %11, align 8, !tbaa !88
  %229 = getelementptr inbounds nuw %struct.AVFrame, ptr %228, i32 0, i32 1
  %230 = load i32, ptr %16, align 4, !tbaa !44
  %231 = sext i32 %230 to i64
  %232 = getelementptr inbounds [8 x i32], ptr %229, i64 0, i64 %231
  %233 = load i32, ptr %232, align 4, !tbaa !44
  %234 = sext i32 %233 to i64
  %235 = load ptr, ptr %12, align 8, !tbaa !88
  %236 = getelementptr inbounds nuw %struct.AVFrame, ptr %235, i32 0, i32 1
  %237 = load i32, ptr %16, align 4, !tbaa !44
  %238 = sext i32 %237 to i64
  %239 = getelementptr inbounds [8 x i32], ptr %236, i64 0, i64 %238
  %240 = load i32, ptr %239, align 4, !tbaa !44
  %241 = sext i32 %240 to i64
  %242 = load ptr, ptr %15, align 8, !tbaa !88
  %243 = getelementptr inbounds nuw %struct.AVFrame, ptr %242, i32 0, i32 1
  %244 = load i32, ptr %16, align 4, !tbaa !44
  %245 = sext i32 %244 to i64
  %246 = getelementptr inbounds [8 x i32], ptr %243, i64 0, i64 %245
  %247 = load i32, ptr %246, align 4, !tbaa !44
  %248 = sext i32 %247 to i64
  %249 = load ptr, ptr %9, align 8, !tbaa !22
  %250 = getelementptr inbounds nuw %struct.ThresholdContext, ptr %249, i32 0, i32 5
  %251 = load i32, ptr %16, align 4, !tbaa !44
  %252 = sext i32 %251 to i64
  %253 = getelementptr inbounds [4 x i32], ptr %250, i64 0, i64 %252
  %254 = load i32, ptr %253, align 4, !tbaa !44
  %255 = load i32, ptr %20, align 4, !tbaa !44
  %256 = load i32, ptr %19, align 4, !tbaa !44
  %257 = sub nsw i32 %255, %256
  call void %133(ptr noundef %149, ptr noundef %165, ptr noundef %181, ptr noundef %197, ptr noundef %213, i64 noundef %220, i64 noundef %227, i64 noundef %234, i64 noundef %241, i64 noundef %248, i32 noundef %254, i32 noundef %257)
  store i32 0, ptr %17, align 4
  br label %258

258:                                              ; preds = %130, %72
  call void @llvm.lifetime.end.p0(i64 4, ptr %20) #9
  call void @llvm.lifetime.end.p0(i64 4, ptr %19) #9
  call void @llvm.lifetime.end.p0(i64 4, ptr %18) #9
  %259 = load i32, ptr %17, align 4
  switch i32 %259, label %265 [
    i32 0, label %260
    i32 4, label %261
  ]

260:                                              ; preds = %258
  br label %261

261:                                              ; preds = %260, %258
  %262 = load i32, ptr %16, align 4, !tbaa !44
  %263 = add nsw i32 %262, 1
  store i32 %263, ptr %16, align 4, !tbaa !44
  br label %40, !llvm.loop !105

264:                                              ; preds = %46
  store i32 1, ptr %17, align 4
  call void @llvm.lifetime.end.p0(i64 8, ptr %15) #9
  call void @llvm.lifetime.end.p0(i64 8, ptr %14) #9
  call void @llvm.lifetime.end.p0(i64 8, ptr %13) #9
  call void @llvm.lifetime.end.p0(i64 8, ptr %12) #9
  call void @llvm.lifetime.end.p0(i64 8, ptr %11) #9
  call void @llvm.lifetime.end.p0(i64 8, ptr %10) #9
  call void @llvm.lifetime.end.p0(i64 8, ptr %9) #9
  ret i32 0

265:                                              ; preds = %258
  unreachable
}