; Function Attrs: nounwind uwtable
define internal noundef i32 @filter_slice(ptr noundef readonly captures(none) %0, ptr noundef readonly captures(none) %1, i32 noundef %2, i32 noundef %3) #2 {
  %5 = getelementptr inbounds nuw i8, ptr %0, i64 72
  %6 = load ptr, ptr %5, align 8, !tbaa !4
  %7 = getelementptr inbounds nuw i8, ptr %1, i64 16
  %8 = load ptr, ptr %7, align 8, !tbaa !78
  %9 = getelementptr inbounds nuw i8, ptr %1, i64 24
  %10 = load ptr, ptr %9, align 8, !tbaa !79
  %11 = getelementptr inbounds nuw i8, ptr %1, i64 8
  %12 = load ptr, ptr %11, align 8, !tbaa !77
  %13 = load ptr, ptr %1, align 8, !tbaa !76
  %14 = getelementptr inbounds nuw i8, ptr %1, i64 32
  %15 = load ptr, ptr %14, align 8, !tbaa !74
  %16 = getelementptr inbounds nuw i8, ptr %6, i64 20
  %17 = load i32, ptr %16, align 4, !tbaa !30
  %18 = icmp sgt i32 %17, 0
  br i1 %18, label %.lr.ph, label %._crit_edge

.lr.ph:                                           ; preds = %4
  %19 = getelementptr inbounds nuw i8, ptr %6, i64 40
  %20 = add nsw i32 %2, 1
  %21 = getelementptr inbounds nuw i8, ptr %6, i64 12
  %22 = getelementptr inbounds nuw i8, ptr %6, i64 56
  %23 = getelementptr inbounds nuw i8, ptr %13, i64 64
  %24 = getelementptr inbounds nuw i8, ptr %12, i64 64
  %25 = getelementptr inbounds nuw i8, ptr %8, i64 64
  %26 = getelementptr inbounds nuw i8, ptr %10, i64 64
  %27 = getelementptr inbounds nuw i8, ptr %15, i64 64
  %28 = getelementptr inbounds nuw i8, ptr %6, i64 24
  %29 = getelementptr inbounds nuw i8, ptr %6, i64 16
  br label %30

._crit_edge:                                      ; preds = %106, %4
  ret i32 0

30:                                               ; preds = %.lr.ph, %106
  %indvars.iv = phi i64 [ 0, %.lr.ph ], [ %indvars.iv.next, %106 ]
  %31 = getelementptr inbounds nuw [4 x i32], ptr %19, i64 0, i64 %indvars.iv
  %32 = load i32, ptr %31, align 4, !tbaa !39
  %33 = mul nsw i32 %32, %2
  %34 = sdiv i32 %33, %3
  %35 = mul nsw i32 %32, %20
  %36 = sdiv i32 %35, %3
  %37 = load i32, ptr %21, align 4, !tbaa !86
  %38 = trunc nuw nsw i64 %indvars.iv to i32
  %39 = shl nuw i32 1, %38
  %40 = and i32 %37, %39
  %.not = icmp eq i32 %40, 0
  br i1 %.not, label %41, label %61

41:                                               ; preds = %30
  %42 = getelementptr inbounds nuw [8 x ptr], ptr %15, i64 0, i64 %indvars.iv
  %43 = load ptr, ptr %42, align 8, !tbaa !87
  %44 = getelementptr inbounds nuw [8 x i32], ptr %27, i64 0, i64 %indvars.iv
  %45 = load i32, ptr %44, align 4, !tbaa !39
  %46 = mul nsw i32 %45, %34
  %47 = sext i32 %46 to i64
  %48 = getelementptr inbounds i8, ptr %43, i64 %47
  %49 = getelementptr inbounds nuw [8 x ptr], ptr %13, i64 0, i64 %indvars.iv
  %50 = load ptr, ptr %49, align 8, !tbaa !87
  %51 = getelementptr inbounds nuw [8 x i32], ptr %23, i64 0, i64 %indvars.iv
  %52 = load i32, ptr %51, align 4, !tbaa !39
  %53 = mul nsw i32 %52, %34
  %54 = sext i32 %53 to i64
  %55 = getelementptr inbounds i8, ptr %50, i64 %54
  %56 = getelementptr inbounds nuw [4 x i32], ptr %28, i64 0, i64 %indvars.iv
  %57 = load i32, ptr %56, align 4, !tbaa !39
  %58 = load i32, ptr %29, align 8, !tbaa !45
  %59 = mul nsw i32 %58, %57
  %60 = sub nsw i32 %36, %34
  tail call void @av_image_copy_plane(ptr noundef %48, i32 noundef %45, ptr noundef %55, i32 noundef %52, i32 noundef %59, i32 noundef %60) #8
  br label %106

61:                                               ; preds = %30
  %62 = load ptr, ptr %22, align 8, !tbaa !44
  %63 = getelementptr inbounds nuw [8 x ptr], ptr %13, i64 0, i64 %indvars.iv
  %64 = load ptr, ptr %63, align 8, !tbaa !87
  %65 = getelementptr inbounds nuw [8 x i32], ptr %23, i64 0, i64 %indvars.iv
  %66 = load i32, ptr %65, align 4, !tbaa !39
  %67 = mul nsw i32 %66, %34
  %68 = sext i32 %67 to i64
  %69 = getelementptr inbounds i8, ptr %64, i64 %68
  %70 = getelementptr inbounds nuw [8 x ptr], ptr %12, i64 0, i64 %indvars.iv
  %71 = load ptr, ptr %70, align 8, !tbaa !87
  %72 = getelementptr inbounds nuw [8 x i32], ptr %24, i64 0, i64 %indvars.iv
  %73 = load i32, ptr %72, align 4, !tbaa !39
  %74 = mul nsw i32 %73, %34
  %75 = sext i32 %74 to i64
  %76 = getelementptr inbounds i8, ptr %71, i64 %75
  %77 = getelementptr inbounds nuw [8 x ptr], ptr %8, i64 0, i64 %indvars.iv
  %78 = load ptr, ptr %77, align 8, !tbaa !87
  %79 = getelementptr inbounds nuw [8 x i32], ptr %25, i64 0, i64 %indvars.iv
  %80 = load i32, ptr %79, align 4, !tbaa !39
  %81 = mul nsw i32 %80, %34
  %82 = sext i32 %81 to i64
  %83 = getelementptr inbounds i8, ptr %78, i64 %82
  %84 = getelementptr inbounds nuw [8 x ptr], ptr %10, i64 0, i64 %indvars.iv
  %85 = load ptr, ptr %84, align 8, !tbaa !87
  %86 = getelementptr inbounds nuw [8 x i32], ptr %26, i64 0, i64 %indvars.iv
  %87 = load i32, ptr %86, align 4, !tbaa !39
  %88 = mul nsw i32 %87, %34
  %89 = sext i32 %88 to i64
  %90 = getelementptr inbounds i8, ptr %85, i64 %89
  %91 = getelementptr inbounds nuw [8 x ptr], ptr %15, i64 0, i64 %indvars.iv
  %92 = load ptr, ptr %91, align 8, !tbaa !87
  %93 = getelementptr inbounds nuw [8 x i32], ptr %27, i64 0, i64 %indvars.iv
  %94 = load i32, ptr %93, align 4, !tbaa !39
  %95 = mul nsw i32 %94, %34
  %96 = sext i32 %95 to i64
  %97 = getelementptr inbounds i8, ptr %92, i64 %96
  %98 = sext i32 %66 to i64
  %99 = sext i32 %73 to i64
  %100 = sext i32 %80 to i64
  %101 = sext i32 %87 to i64
  %102 = sext i32 %94 to i64
  %103 = getelementptr inbounds nuw [4 x i32], ptr %28, i64 0, i64 %indvars.iv
  %104 = load i32, ptr %103, align 4, !tbaa !39
  %105 = sub nsw i32 %36, %34
  tail call void %62(ptr noundef %69, ptr noundef %76, ptr noundef %83, ptr noundef %90, ptr noundef %97, i64 noundef %98, i64 noundef %99, i64 noundef %100, i64 noundef %101, i64 noundef %102, i32 noundef %104, i32 noundef %105) #8
  br label %106

106:                                              ; preds = %61, %41
  %indvars.iv.next = add nuw nsw i64 %indvars.iv, 1
  %107 = load i32, ptr %16, align 4, !tbaa !30
  %108 = sext i32 %107 to i64
  %109 = icmp slt i64 %indvars.iv.next, %108
  br i1 %109, label %30, label %._crit_edge, !llvm.loop !88
}